; Function Attrs: mustprogress uwtable
define noundef zeroext i1 @_ZN5Ipopt12LoqoMuOracle11CalculateMuEddRd(ptr noundef nonnull readonly align 8 captures(none) dereferenceable(49) %0, double noundef %1, double noundef %2, ptr noundef nonnull writeonly align 8 captures(none) dereferenceable(8) initializes((0, 8)) %3) unnamed_addr #7 align 2 {
  %5 = getelementptr inbounds nuw i8, ptr %0, i64 40
  %6 = load ptr, ptr %5, align 8, !tbaa !10
  %7 = tail call noundef double @_ZN5Ipopt25IpoptCalculatedQuantities15curr_avrg_complEv(ptr noundef nonnull align 8 dereferenceable(2185) %6)
  %8 = getelementptr inbounds nuw i8, ptr %0, i64 16
  %9 = load ptr, ptr %8, align 8, !tbaa !20
  %10 = load ptr, ptr %9, align 8, !tbaa !8
  %11 = getelementptr inbounds nuw i8, ptr %10, i64 16
  %12 = load ptr, ptr %11, align 8
  tail call void (ptr, i32, i32, ptr, ...) %12(ptr noundef nonnull align 8 dereferenceable(40) %9, i32 noundef 6, i32 noundef 4, ptr noundef nonnull @.str, double noundef %7)
  %13 = load ptr, ptr %5, align 8, !tbaa !10
  %14 = load ptr, ptr %13, align 8, !tbaa !8
  %15 = getelementptr inbounds nuw i8, ptr %14, i64 184
  %16 = load ptr, ptr %15, align 8
  %17 = tail call noundef double %16(ptr noundef nonnull align 8 dereferenceable(2185) %13)
  %18 = load ptr, ptr %8, align 8, !tbaa !20
  %19 = load ptr, ptr %18, align 8, !tbaa !8
  %20 = getelementptr inbounds nuw i8, ptr %19, i64 16
  %21 = load ptr, ptr %20, align 8
  tail call void (ptr, i32, i32, ptr, ...) %21(ptr noundef nonnull align 8 dereferenceable(40) %18, i32 noundef 6, i32 noundef 4, ptr noundef nonnull @.str.1, double noundef %17)
  %22 = fsub double 1.000000e+00, %17
  %23 = fmul double %22, 5.000000e-02
  %24 = fdiv double %23, %17
  %25 = fcmp ogt double %24, 2.000000e+00
  %.sroa.speculated.i = select i1 %25, double 2.000000e+00, double %24
  %26 = tail call double @pow(double noundef %.sroa.speculated.i, double noundef 3.000000e+00) #12, !tbaa !23
  %27 = fmul double %26, 1.000000e-01
  %28 = fmul double %7, %27
  %29 = load ptr, ptr %8, align 8, !tbaa !20
  %30 = load ptr, ptr %29, align 8, !tbaa !8
  %31 = getelementptr inbounds nuw i8, ptr %30, i64 16
  %32 = load ptr, ptr %31, align 8
  tail call void (ptr, i32, i32, ptr, ...) %32(ptr noundef nonnull align 8 dereferenceable(40) %29, i32 noundef 6, i32 noundef 4, ptr noundef nonnull @.str.2, double noundef %28)
  %33 = fcmp olt double %28, %2
  %.sroa.speculated.i13 = select i1 %33, double %28, double %2
  %34 = fcmp olt double %.sroa.speculated.i13, %1
  %.sroa.speculated.i14 = select i1 %34, double %1, double %.sroa.speculated.i13
  store double %.sroa.speculated.i14, ptr %3, align 8, !tbaa !24
  ret i1 true
}